; Function Attrs: nounwind uwtable
define hidden void @Wayland_MinimizeWindow(ptr noundef readnone captures(none) %0, ptr noundef %1) local_unnamed_addr #0 {
  %3 = getelementptr inbounds nuw i8, ptr %1, i64 392
  %4 = load ptr, ptr %3, align 8
  %5 = getelementptr inbounds nuw i8, ptr %4, i64 96
  %6 = load i32, ptr %5, align 8
  %7 = and i32 %6, 8
  %.not = icmp eq i32 %7, 0
  br i1 %.not, label %22, label %8

8:                                                ; preds = %2
  %9 = getelementptr inbounds nuw i8, ptr %4, i64 88
  %10 = load i32, ptr %9, align 8
  %11 = icmp eq i32 %10, 1
  br i1 %11, label %12, label %22

12:                                               ; preds = %8
  %13 = getelementptr inbounds nuw i8, ptr %4, i64 64
  %14 = load ptr, ptr %13, align 8
  %15 = icmp eq ptr %14, null
  br i1 %15, label %22, label %16

16:                                               ; preds = %12
  %17 = load ptr, ptr @WAYLAND_wl_proxy_marshal_flags, align 8
  %18 = load ptr, ptr @WAYLAND_wl_proxy_get_version, align 8
  %19 = tail call i32 %18(ptr noundef nonnull %14) #15
  %20 = tail call ptr (ptr, i32, ptr, i32, i32, ...) %17(ptr noundef nonnull %14, i32 noundef 13, ptr noundef null, i32 noundef %19, i32 noundef 0) #15
  %21 = tail call zeroext i1 @SDL_SendWindowEvent(ptr noundef nonnull %1, i32 noundef 521, i32 noundef 0, i32 noundef 0) #15
  br label %22

22:                                               ; preds = %8, %16, %12, %2
  ret void
}